; ModuleID = '46/2281.c'
source_filename = "46/2281.c"
target datalayout = "e-m:e-p270:32:32-p271:32:32-p272:64:64-i64:64-f80:128-n8:16:32:64-S128"
target triple = "x86_64-pc-linux-gnu"

@.str = private unnamed_addr constant [6 x i8] c"%d %d\00", align 1
@.str.1 = private unnamed_addr constant [3 x i8] c"%d\00", align 1
@.str.2 = private unnamed_addr constant [4 x i8] c"%d\0A\00", align 1

; Function Attrs: noinline nounwind uwtable
define dso_local void @main() #0 {
  %1 = alloca i32, align 4
  %2 = alloca i32, align 4
  %3 = alloca i32, align 4
  %4 = alloca i32, align 4
  %5 = alloca i32, align 4
  %6 = alloca i32, align 4
  %7 = alloca i32, align 4
  %8 = alloca i32, align 4
  %9 = alloca i32, align 4
  %10 = alloca [105 x [105 x i32]], align 16
  store i32 0, i32* %1, align 4
  store i32 0, i32* %2, align 4
  store i32 0, i32* %4, align 4
  %11 = call i32 (i8*, ...) @__isoc99_scanf(i8* getelementptr inbounds ([6 x i8], [6 x i8]* @.str, i64 0, i64 0), i32* %8, i32* %9)
  store i32 0, i32* %6, align 4
  br label %12

12:                                               ; preds = %33, %0
  %13 = load i32, i32* %6, align 4
  %14 = load i32, i32* %8, align 4
  %15 = icmp slt i32 %13, %14
  br i1 %15, label %16, label %36

16:                                               ; preds = %12
  store i32 0, i32* %7, align 4
  br label %17

17:                                               ; preds = %29, %16
  %18 = load i32, i32* %7, align 4
  %19 = load i32, i32* %9, align 4
  %20 = icmp slt i32 %18, %19
  br i1 %20, label %21, label %32

21:                                               ; preds = %17
  %22 = load i32, i32* %6, align 4
  %23 = sext i32 %22 to i64
  %24 = getelementptr inbounds [105 x [105 x i32]], [105 x [105 x i32]]* %10, i64 0, i64 %23
  %25 = load i32, i32* %7, align 4
  %26 = sext i32 %25 to i64
  %27 = getelementptr inbounds [105 x i32], [105 x i32]* %24, i64 0, i64 %26
  %28 = call i32 (i8*, ...) @__isoc99_scanf(i8* getelementptr inbounds ([3 x i8], [3 x i8]* @.str.1, i64 0, i64 0), i32* %27)
  br label %29

29:                                               ; preds = %21
  %30 = load i32, i32* %7, align 4
  %31 = add nsw i32 %30, 1
  store i32 %31, i32* %7, align 4
  br label %17

32:                                               ; preds = %17
  br label %33

33:                                               ; preds = %32
  %34 = load i32, i32* %6, align 4
  %35 = add nsw i32 %34, 1
  store i32 %35, i32* %6, align 4
  br label %12

36:                                               ; preds = %12
  %37 = load i32, i32* %8, align 4
  %38 = sub nsw i32 %37, 1
  store i32 %38, i32* %3, align 4
  %39 = load i32, i32* %9, align 4
  %40 = sub nsw i32 %39, 1
  store i32 %40, i32* %5, align 4
  br label %41

41:                                               ; preds = %161, %36
  %42 = load i32, i32* %1, align 4
  %43 = load i32, i32* %8, align 4
  %44 = load i32, i32* %9, align 4
  %45 = mul nsw i32 %43, %44
  %46 = icmp sle i32 %42, %45
  br i1 %46, label %47, label %164

47:                                               ; preds = %41
  %48 = load i32, i32* %4, align 4
  store i32 %48, i32* %6, align 4
  br label %49

49:                                               ; preds = %64, %47
  %50 = load i32, i32* %6, align 4
  %51 = load i32, i32* %5, align 4
  %52 = icmp sle i32 %50, %51
  br i1 %52, label %53, label %67

53:                                               ; preds = %49
  %54 = load i32, i32* %2, align 4
  %55 = sext i32 %54 to i64
  %56 = getelementptr inbounds [105 x [105 x i32]], [105 x [105 x i32]]* %10, i64 0, i64 %55
  %57 = load i32, i32* %6, align 4
  %58 = sext i32 %57 to i64
  %59 = getelementptr inbounds [105 x i32], [105 x i32]* %56, i64 0, i64 %58
  %60 = load i32, i32* %59, align 4
  %61 = call i32 (i8*, ...) @printf(i8* getelementptr inbounds ([4 x i8], [4 x i8]* @.str.2, i64 0, i64 0), i32 %60)
  %62 = load i32, i32* %1, align 4
  %63 = add nsw i32 %62, 1
  store i32 %63, i32* %1, align 4
  br label %64

64:                                               ; preds = %53
  %65 = load i32, i32* %6, align 4
  %66 = add nsw i32 %65, 1
  store i32 %66, i32* %6, align 4
  br label %49

67:                                               ; preds = %49
  %68 = load i32, i32* %1, align 4
  %69 = load i32, i32* %8, align 4
  %70 = load i32, i32* %9, align 4
  %71 = mul nsw i32 %69, %70
  %72 = icmp eq i32 %68, %71
  br i1 %72, label %73, label %74

73:                                               ; preds = %67
  br label %164

74:                                               ; preds = %67
  %75 = load i32, i32* %2, align 4
  %76 = add nsw i32 %75, 1
  store i32 %76, i32* %2, align 4
  %77 = load i32, i32* %2, align 4
  store i32 %77, i32* %6, align 4
  br label %78

78:                                               ; preds = %93, %74
  %79 = load i32, i32* %6, align 4
  %80 = load i32, i32* %3, align 4
  %81 = icmp sle i32 %79, %80
  br i1 %81, label %82, label %96

82:                                               ; preds = %78
  %83 = load i32, i32* %6, align 4
  %84 = sext i32 %83 to i64
  %85 = getelementptr inbounds [105 x [105 x i32]], [105 x [105 x i32]]* %10, i64 0, i64 %84
  %86 = load i32, i32* %5, align 4
  %87 = sext i32 %86 to i64
  %88 = getelementptr inbounds [105 x i32], [105 x i32]* %85, i64 0, i64 %87
  %89 = load i32, i32* %88, align 4
  %90 = call i32 (i8*, ...) @printf(i8* getelementptr inbounds ([4 x i8], [4 x i8]* @.str.2, i64 0, i64 0), i32 %89)
  %91 = load i32, i32* %1, align 4
  %92 = add nsw i32 %91, 1
  store i32 %92, i32* %1, align 4
  br label %93

93:                                               ; preds = %82
  %94 = load i32, i32* %6, align 4
  %95 = add nsw i32 %94, 1
  store i32 %95, i32* %6, align 4
  br label %78

96:                                               ; preds = %78
  %97 = load i32, i32* %1, align 4
  %98 = load i32, i32* %8, align 4
  %99 = load i32, i32* %9, align 4
  %100 = mul nsw i32 %98, %99
  %101 = icmp eq i32 %97, %100
  br i1 %101, label %102, label %103

102:                                              ; preds = %96
  br label %164

103:                                              ; preds = %96
  %104 = load i32, i32* %5, align 4
  %105 = add nsw i32 %104, -1
  store i32 %105, i32* %5, align 4
  %106 = load i32, i32* %5, align 4
  store i32 %106, i32* %6, align 4
  br label %107

107:                                              ; preds = %122, %103
  %108 = load i32, i32* %6, align 4
  %109 = load i32, i32* %4, align 4
  %110 = icmp sge i32 %108, %109
  br i1 %110, label %111, label %125

111:                                              ; preds = %107
  %112 = load i32, i32* %3, align 4
  %113 = sext i32 %112 to i64
  %114 = getelementptr inbounds [105 x [105 x i32]], [105 x [105 x i32]]* %10, i64 0, i64 %113
  %115 = load i32, i32* %6, align 4
  %116 = sext i32 %115 to i64
  %117 = getelementptr inbounds [105 x i32], [105 x i32]* %114, i64 0, i64 %116
  %118 = load i32, i32* %117, align 4
  %119 = call i32 (i8*, ...) @printf(i8* getelementptr inbounds ([4 x i8], [4 x i8]* @.str.2, i64 0, i64 0), i32 %118)
  %120 = load i32, i32* %1, align 4
  %121 = add nsw i32 %120, 1
  store i32 %121, i32* %1, align 4
  br label %122

122:                                              ; preds = %111
  %123 = load i32, i32* %6, align 4
  %124 = add nsw i32 %123, -1
  store i32 %124, i32* %6, align 4
  br label %107

125:                                              ; preds = %107
  %126 = load i32, i32* %1, align 4
  %127 = load i32, i32* %8, align 4
  %128 = load i32, i32* %9, align 4
  %129 = mul nsw i32 %127, %128
  %130 = icmp eq i32 %126, %129
  br i1 %130, label %131, label %132

131:                                              ; preds = %125
  br label %164

132:                                              ; preds = %125
  %133 = load i32, i32* %3, align 4
  %134 = add nsw i32 %133, -1
  store i32 %134, i32* %3, align 4
  %135 = load i32, i32* %3, align 4
  store i32 %135, i32* %6, align 4
  br label %136

136:                                              ; preds = %151, %132
  %137 = load i32, i32* %6, align 4
  %138 = load i32, i32* %2, align 4
  %139 = icmp sge i32 %137, %138
  br i1 %139, label %140, label %154

140:                                              ; preds = %136
  %141 = load i32, i32* %6, align 4
  %142 = sext i32 %141 to i64
  %143 = getelementptr inbounds [105 x [105 x i32]], [105 x [105 x i32]]* %10, i64 0, i64 %142
  %144 = load i32, i32* %4, align 4
  %145 = sext i32 %144 to i64
  %146 = getelementptr inbounds [105 x i32], [105 x i32]* %143, i64 0, i64 %145
  %147 = load i32, i32* %146, align 4
  %148 = call i32 (i8*, ...) @printf(i8* getelementptr inbounds ([4 x i8], [4 x i8]* @.str.2, i64 0, i64 0), i32 %147)
  %149 = load i32, i32* %1, align 4
  %150 = add nsw i32 %149, 1
  store i32 %150, i32* %1, align 4
  br label %151

151:                                              ; preds = %140
  %152 = load i32, i32* %6, align 4
  %153 = add nsw i32 %152, -1
  store i32 %153, i32* %6, align 4
  br label %136

154:                                              ; preds = %136
  %155 = load i32, i32* %1, align 4
  %156 = load i32, i32* %8, align 4
  %157 = load i32, i32* %9, align 4
  %158 = mul nsw i32 %156, %157
  %159 = icmp eq i32 %155, %158
  br i1 %159, label %160, label %161

160:                                              ; preds = %154
  br label %164

161:                                              ; preds = %154
  %162 = load i32, i32* %4, align 4
  %163 = add nsw i32 %162, 1
  store i32 %163, i32* %4, align 4
  br label %41

164:                                              ; preds = %160, %131, %102, %73, %41
  ret void
}

declare dso_local i32 @__isoc99_scanf(i8*, ...) #1

declare dso_local i32 @printf(i8*, ...) #1


!llvm.module.flags = !{!0}
!llvm.ident = !{!1}

!0 = !{i32 1, !"wchar_size", i32 4}
!1 = !{!"clang version 10.0.0-4ubuntu1 "}
